; ModuleID = '56/1046.c'
source_filename = "56/1046.c"
target datalayout = "e-m:e-p270:32:32-p271:32:32-p272:64:64-i64:64-f80:128-n8:16:32:64-S128"
target triple = "x86_64-pc-linux-gnu"

@.str = private unnamed_addr constant [3 x i8] c"%d\00", align 1

; Function Attrs: noinline nounwind uwtable
define dso_local i32 @main() #0 {
  %1 = alloca i32, align 4
  %2 = alloca i32, align 4
  %3 = alloca i32, align 4
  %4 = alloca i32, align 4
  %5 = alloca i32, align 4
  %6 = alloca i32, align 4
  store i32 0, i32* %1, align 4
  store i32 0, i32* %3, align 4
  %7 = call i32 (i8*, ...) @__isoc99_scanf(i8* getelementptr inbounds ([3 x i8], [3 x i8]* @.str, i64 0, i64 0), i32* %2)
  %8 = load i32, i32* %2, align 4
  store i32 %8, i32* %4, align 4
  br label %9

9:                                                ; preds = %12, %0
  %10 = load i32, i32* %4, align 4
  %11 = icmp sgt i32 %10, 0
  br i1 %11, label %12, label %17

12:                                               ; preds = %9
  %13 = load i32, i32* %4, align 4
  %14 = sdiv i32 %13, 10
  store i32 %14, i32* %4, align 4
  %15 = load i32, i32* %3, align 4
  %16 = add nsw i32 %15, 1
  store i32 %16, i32* %3, align 4
  br label %9

17:                                               ; preds = %9
  store i32 0, i32* %5, align 4
  br label %18

18:                                               ; preds = %29, %17
  %19 = load i32, i32* %5, align 4
  %20 = load i32, i32* %3, align 4
  %21 = icmp slt i32 %19, %20
  br i1 %21, label %22, label %32

22:                                               ; preds = %18
  store i32 0, i32* %6, align 4
  %23 = load i32, i32* %2, align 4
  %24 = srem i32 %23, 10
  store i32 %24, i32* %6, align 4
  %25 = load i32, i32* %6, align 4
  %26 = call i32 (i8*, ...) @printf(i8* getelementptr inbounds ([3 x i8], [3 x i8]* @.str, i64 0, i64 0), i32 %25)
  %27 = load i32, i32* %2, align 4
  %28 = sdiv i32 %27, 10
  store i32 %28, i32* %2, align 4
  br label %29

29:                                               ; preds = %22
  %30 = load i32, i32* %5, align 4
  %31 = add nsw i32 %30, 1
  store i32 %31, i32* %5, align 4
  br label %18

32:                                               ; preds = %18
  ret i32 0
}

declare dso_local i32 @__isoc99_scanf(i8*, ...) #1

declare dso_local i32 @printf(i8*, ...) #1


!llvm.module.flags = !{!0}
!llvm.ident = !{!1}

!0 = !{i32 1, !"wchar_size", i32 4}
!1 = !{!"clang version 10.0.0-4ubuntu1 "}
